; Function Attrs: mustprogress nounwind uwtable
define noundef zeroext i1 @_ZN32pxrInternal_v0_24__pxrReserved__eqERKNS_14HgiTextureDescES2_(ptr noundef nonnull align 8 dereferenceable(96) %0, ptr noundef nonnull align 8 dereferenceable(96) %1) local_unnamed_addr #1 personality ptr @__gxx_personality_v0 {
  %3 = tail call noundef i64 @_ZNKSt7__cxx1112basic_stringIcSt11char_traitsIcESaIcEE4sizeEv(ptr noundef nonnull align 8 dereferenceable(32) %0) #15
  %4 = tail call noundef i64 @_ZNKSt7__cxx1112basic_stringIcSt11char_traitsIcESaIcEE4sizeEv(ptr noundef nonnull align 8 dereferenceable(32) %1) #15
  %5 = icmp eq i64 %3, %4
  br i1 %5, label %6, label %_ZSteqIcEN9__gnu_cxx11__enable_ifIXsr9__is_charIT_EE7__valueEbE6__typeERKNSt7__cxx1112basic_stringIS2_St11char_traitsIS2_ESaIS2_EEESC_.exit.thread16

6:                                                ; preds = %2
  %7 = tail call noundef ptr @_ZNKSt7__cxx1112basic_stringIcSt11char_traitsIcESaIcEE4dataEv(ptr noundef nonnull align 8 dereferenceable(32) %0) #15
  %8 = tail call noundef ptr @_ZNKSt7__cxx1112basic_stringIcSt11char_traitsIcESaIcEE4dataEv(ptr noundef nonnull align 8 dereferenceable(32) %1) #15
  %9 = tail call noundef i64 @_ZNKSt7__cxx1112basic_stringIcSt11char_traitsIcESaIcEE4sizeEv(ptr noundef nonnull align 8 dereferenceable(32) %0) #15
  %10 = icmp eq i64 %9, 0
  br i1 %10, label %_ZSteqIcEN9__gnu_cxx11__enable_ifIXsr9__is_charIT_EE7__valueEbE6__typeERKNSt7__cxx1112basic_stringIS2_St11char_traitsIS2_ESaIS2_EEESC_.exit.thread, label %_ZSteqIcEN9__gnu_cxx11__enable_ifIXsr9__is_charIT_EE7__valueEbE6__typeERKNSt7__cxx1112basic_stringIS2_St11char_traitsIS2_ESaIS2_EEESC_.exit

_ZSteqIcEN9__gnu_cxx11__enable_ifIXsr9__is_charIT_EE7__valueEbE6__typeERKNSt7__cxx1112basic_stringIS2_St11char_traitsIS2_ESaIS2_EEESC_.exit: ; preds = %6
  %bcmp.i = tail call i32 @bcmp(ptr %7, ptr %8, i64 %9)
  %11 = icmp eq i32 %bcmp.i, 0
  br i1 %11, label %_ZSteqIcEN9__gnu_cxx11__enable_ifIXsr9__is_charIT_EE7__valueEbE6__typeERKNSt7__cxx1112basic_stringIS2_St11char_traitsIS2_ESaIS2_EEESC_.exit.thread, label %_ZSteqIcEN9__gnu_cxx11__enable_ifIXsr9__is_charIT_EE7__valueEbE6__typeERKNSt7__cxx1112basic_stringIS2_St11char_traitsIS2_ESaIS2_EEESC_.exit.thread16

_ZSteqIcEN9__gnu_cxx11__enable_ifIXsr9__is_charIT_EE7__valueEbE6__typeERKNSt7__cxx1112basic_stringIS2_St11char_traitsIS2_ESaIS2_EEESC_.exit.thread: ; preds = %6, %_ZSteqIcEN9__gnu_cxx11__enable_ifIXsr9__is_charIT_EE7__valueEbE6__typeERKNSt7__cxx1112basic_stringIS2_St11char_traitsIS2_ESaIS2_EEESC_.exit
  %12 = getelementptr inbounds nuw i8, ptr %0, i64 32
  %13 = load i32, ptr %12, align 8
  %14 = getelementptr inbounds nuw i8, ptr %1, i64 32
  %15 = load i32, ptr %14, align 8
  %16 = icmp eq i32 %13, %15
  br i1 %16, label %17, label %_ZSteqIcEN9__gnu_cxx11__enable_ifIXsr9__is_charIT_EE7__valueEbE6__typeERKNSt7__cxx1112basic_stringIS2_St11char_traitsIS2_ESaIS2_EEESC_.exit.thread16

17:                                               ; preds = %_ZSteqIcEN9__gnu_cxx11__enable_ifIXsr9__is_charIT_EE7__valueEbE6__typeERKNSt7__cxx1112basic_stringIS2_St11char_traitsIS2_ESaIS2_EEESC_.exit.thread
  %18 = getelementptr inbounds nuw i8, ptr %0, i64 36
  %19 = load i32, ptr %18, align 4
  %20 = getelementptr inbounds nuw i8, ptr %1, i64 36
  %21 = load i32, ptr %20, align 4
  %22 = icmp eq i32 %19, %21
  br i1 %22, label %23, label %_ZSteqIcEN9__gnu_cxx11__enable_ifIXsr9__is_charIT_EE7__valueEbE6__typeERKNSt7__cxx1112basic_stringIS2_St11char_traitsIS2_ESaIS2_EEESC_.exit.thread16

23:                                               ; preds = %17
  %24 = getelementptr inbounds nuw i8, ptr %0, i64 40
  %25 = getelementptr inbounds nuw i8, ptr %1, i64 40
  %26 = load i32, ptr %24, align 8
  %27 = load i32, ptr %25, align 8
  %28 = icmp eq i32 %26, %27
  br i1 %28, label %29, label %_ZSteqIcEN9__gnu_cxx11__enable_ifIXsr9__is_charIT_EE7__valueEbE6__typeERKNSt7__cxx1112basic_stringIS2_St11char_traitsIS2_ESaIS2_EEESC_.exit.thread16

29:                                               ; preds = %23
  %30 = getelementptr inbounds i8, ptr %0, i64 44
  %31 = load i32, ptr %30, align 4
  %32 = getelementptr inbounds i8, ptr %1, i64 44
  %33 = load i32, ptr %32, align 4
  %34 = icmp eq i32 %31, %33
  br i1 %34, label %35, label %_ZSteqIcEN9__gnu_cxx11__enable_ifIXsr9__is_charIT_EE7__valueEbE6__typeERKNSt7__cxx1112basic_stringIS2_St11char_traitsIS2_ESaIS2_EEESC_.exit.thread16

35:                                               ; preds = %29
  %36 = getelementptr inbounds i8, ptr %0, i64 48
  %37 = load i32, ptr %36, align 8
  %38 = getelementptr inbounds i8, ptr %1, i64 48
  %39 = load i32, ptr %38, align 8
  %40 = icmp eq i32 %37, %39
  br i1 %40, label %_ZN32pxrInternal_v0_24__pxrReserved__eqERKNS_19HgiComponentMappingES2_.exit, label %_ZSteqIcEN9__gnu_cxx11__enable_ifIXsr9__is_charIT_EE7__valueEbE6__typeERKNSt7__cxx1112basic_stringIS2_St11char_traitsIS2_ESaIS2_EEESC_.exit.thread16

_ZN32pxrInternal_v0_24__pxrReserved__eqERKNS_19HgiComponentMappingES2_.exit: ; preds = %35
  %41 = getelementptr inbounds i8, ptr %0, i64 52
  %42 = load i32, ptr %41, align 4
  %43 = getelementptr inbounds i8, ptr %1, i64 52
  %44 = load i32, ptr %43, align 4
  %45 = icmp eq i32 %42, %44
  br i1 %45, label %46, label %_ZSteqIcEN9__gnu_cxx11__enable_ifIXsr9__is_charIT_EE7__valueEbE6__typeERKNSt7__cxx1112basic_stringIS2_St11char_traitsIS2_ESaIS2_EEESC_.exit.thread16

46:                                               ; preds = %_ZN32pxrInternal_v0_24__pxrReserved__eqERKNS_19HgiComponentMappingES2_.exit
  %47 = getelementptr inbounds nuw i8, ptr %0, i64 56
  %48 = load i32, ptr %47, align 8
  %49 = getelementptr inbounds nuw i8, ptr %1, i64 56
  %50 = load i32, ptr %49, align 8
  %51 = icmp eq i32 %48, %50
  br i1 %51, label %52, label %_ZSteqIcEN9__gnu_cxx11__enable_ifIXsr9__is_charIT_EE7__valueEbE6__typeERKNSt7__cxx1112basic_stringIS2_St11char_traitsIS2_ESaIS2_EEESC_.exit.thread16

52:                                               ; preds = %46
  %53 = getelementptr inbounds nuw i8, ptr %0, i64 60
  %54 = getelementptr inbounds nuw i8, ptr %1, i64 60
  %55 = load i32, ptr %53, align 4
  %56 = load i32, ptr %54, align 4
  %57 = icmp eq i32 %55, %56
  br i1 %57, label %58, label %_ZSteqIcEN9__gnu_cxx11__enable_ifIXsr9__is_charIT_EE7__valueEbE6__typeERKNSt7__cxx1112basic_stringIS2_St11char_traitsIS2_ESaIS2_EEESC_.exit.thread16

58:                                               ; preds = %52
  %59 = getelementptr inbounds i8, ptr %0, i64 64
  %60 = load i32, ptr %59, align 8
  %61 = getelementptr inbounds i8, ptr %1, i64 64
  %62 = load i32, ptr %61, align 8
  %63 = icmp eq i32 %60, %62
  br i1 %63, label %_ZNK32pxrInternal_v0_24__pxrReserved__7GfVec3ieqERKS0_.exit, label %_ZSteqIcEN9__gnu_cxx11__enable_ifIXsr9__is_charIT_EE7__valueEbE6__typeERKNSt7__cxx1112basic_stringIS2_St11char_traitsIS2_ESaIS2_EEESC_.exit.thread16

_ZNK32pxrInternal_v0_24__pxrReserved__7GfVec3ieqERKS0_.exit: ; preds = %58
  %64 = getelementptr inbounds i8, ptr %0, i64 68
  %65 = load i32, ptr %64, align 4
  %66 = getelementptr inbounds i8, ptr %1, i64 68
  %67 = load i32, ptr %66, align 4
  %68 = icmp eq i32 %65, %67
  br i1 %68, label %69, label %_ZSteqIcEN9__gnu_cxx11__enable_ifIXsr9__is_charIT_EE7__valueEbE6__typeERKNSt7__cxx1112basic_stringIS2_St11char_traitsIS2_ESaIS2_EEESC_.exit.thread16

69:                                               ; preds = %_ZNK32pxrInternal_v0_24__pxrReserved__7GfVec3ieqERKS0_.exit
  %70 = getelementptr inbounds nuw i8, ptr %0, i64 76
  %71 = load i32, ptr %70, align 4
  %72 = getelementptr inbounds nuw i8, ptr %1, i64 76
  %73 = load i32, ptr %72, align 4
  %74 = icmp eq i32 %71, %73
  br i1 %74, label %75, label %_ZSteqIcEN9__gnu_cxx11__enable_ifIXsr9__is_charIT_EE7__valueEbE6__typeERKNSt7__cxx1112basic_stringIS2_St11char_traitsIS2_ESaIS2_EEESC_.exit.thread16

75:                                               ; preds = %69
  %76 = getelementptr inbounds nuw i8, ptr %0, i64 80
  %77 = load i64, ptr %76, align 8
  %78 = getelementptr inbounds nuw i8, ptr %1, i64 80
  %79 = load i64, ptr %78, align 8
  %80 = icmp eq i64 %77, %79
  br label %_ZSteqIcEN9__gnu_cxx11__enable_ifIXsr9__is_charIT_EE7__valueEbE6__typeERKNSt7__cxx1112basic_stringIS2_St11char_traitsIS2_ESaIS2_EEESC_.exit.thread16

_ZSteqIcEN9__gnu_cxx11__enable_ifIXsr9__is_charIT_EE7__valueEbE6__typeERKNSt7__cxx1112basic_stringIS2_St11char_traitsIS2_ESaIS2_EEESC_.exit.thread16: ; preds = %52, %58, %23, %29, %35, %2, %75, %69, %_ZNK32pxrInternal_v0_24__pxrReserved__7GfVec3ieqERKS0_.exit, %46, %_ZN32pxrInternal_v0_24__pxrReserved__eqERKNS_19HgiComponentMappingES2_.exit, %17, %_ZSteqIcEN9__gnu_cxx11__enable_ifIXsr9__is_charIT_EE7__valueEbE6__typeERKNSt7__cxx1112basic_stringIS2_St11char_traitsIS2_ESaIS2_EEESC_.exit.thread, %_ZSteqIcEN9__gnu_cxx11__enable_ifIXsr9__is_charIT_EE7__valueEbE6__typeERKNSt7__cxx1112basic_stringIS2_St11char_traitsIS2_ESaIS2_EEESC_.exit
  %81 = phi i1 [ false, %69 ], [ false, %_ZNK32pxrInternal_v0_24__pxrReserved__7GfVec3ieqERKS0_.exit ], [ false, %46 ], [ false, %_ZN32pxrInternal_v0_24__pxrReserved__eqERKNS_19HgiComponentMappingES2_.exit ], [ false, %17 ], [ false, %_ZSteqIcEN9__gnu_cxx11__enable_ifIXsr9__is_charIT_EE7__valueEbE6__typeERKNSt7__cxx1112basic_stringIS2_St11char_traitsIS2_ESaIS2_EEESC_.exit.thread ], [ false, %_ZSteqIcEN9__gnu_cxx11__enable_ifIXsr9__is_charIT_EE7__valueEbE6__typeERKNSt7__cxx1112basic_stringIS2_St11char_traitsIS2_ESaIS2_EEESC_.exit ], [ %80, %75 ], [ false, %2 ], [ false, %35 ], [ false, %29 ], [ false, %23 ], [ false, %58 ], [ false, %52 ]
  ret i1 %81
}